; Function Attrs: mustprogress nofree norecurse nosync nounwind willreturn memory(argmem: readwrite) uwtable
define internal double @compute_avg_dbl(ptr noundef captures(none) %0, double noundef %1, double noundef %2, i32 noundef %3, ptr readnone captures(none) %4, ptr readnone captures(none) %5) #7 {
  %7 = tail call nsz double @llvm.fabs.f64(double %1)
  %8 = load double, ptr %0, align 8, !tbaa !101
  %9 = fadd nsz double %7, %8
  %10 = tail call nsz double @llvm.fabs.f64(double %2)
  %11 = fsub nsz double %9, %10
  %12 = tail call nsz double @llvm.maxnum.f64(double %11, double 0.000000e+00)
  store double %12, ptr %0, align 8, !tbaa !101
  %13 = sitofp i32 %3 to double
  %14 = fdiv nsz double %12, %13
  ret double %14
}